; ModuleID = '55/1703.cpp'
source_filename = "55/1703.cpp"
target datalayout = "e-m:e-p270:32:32-p271:32:32-p272:64:64-i64:64-f80:128-n8:16:32:64-S128"
target triple = "x86_64-pc-linux-gnu"

%"class.std::ios_base::Init" = type { i8 }
%"class.std::basic_istream" = type { i32 (...)**, i64, %"class.std::basic_ios" }
%"class.std::basic_ios" = type { %"class.std::ios_base", %"class.std::basic_ostream"*, i8, i8, %"class.std::basic_streambuf"*, %"class.std::ctype"*, %"class.std::num_put"*, %"class.std::num_get"* }
%"class.std::ios_base" = type { i32 (...)**, i64, i64, i32, i32, i32, %"struct.std::ios_base::_Callback_list"*, %"struct.std::ios_base::_Words", [8 x %"struct.std::ios_base::_Words"], i32, %"struct.std::ios_base::_Words"*, %"class.std::locale" }
%"struct.std::ios_base::_Callback_list" = type { %"struct.std::ios_base::_Callback_list"*, void (i32, %"class.std::ios_base"*, i32)*, i32, i32 }
%"struct.std::ios_base::_Words" = type { i8*, i64 }
%"class.std::locale" = type { %"class.std::locale::_Impl"* }
%"class.std::locale::_Impl" = type { i32, %"class.std::locale::facet"**, i64, %"class.std::locale::facet"**, i8** }
%"class.std::locale::facet" = type <{ i32 (...)**, i32, [4 x i8] }>
%"class.std::basic_ostream" = type { i32 (...)**, %"class.std::basic_ios" }
%"class.std::basic_streambuf" = type { i32 (...)**, i8*, i8*, i8*, i8*, i8*, i8*, %"class.std::locale" }
%"class.std::ctype" = type <{ %"class.std::locale::facet.base", [4 x i8], %struct.__locale_struct*, i8, [7 x i8], i32*, i32*, i16*, i8, [256 x i8], [256 x i8], i8, [6 x i8] }>
%"class.std::locale::facet.base" = type <{ i32 (...)**, i32 }>
%struct.__locale_struct = type { [13 x %struct.__locale_data*], i16*, i32*, i32*, [13 x i8*] }
%struct.__locale_data = type opaque
%"class.std::num_put" = type { %"class.std::locale::facet.base", [4 x i8] }
%"class.std::num_get" = type { %"class.std::locale::facet.base", [4 x i8] }

@_ZStL8__ioinit = internal global %"class.std::ios_base::Init" zeroinitializer, align 1
@__dso_handle = external hidden global i8
@_ZSt3cin = external dso_local global %"class.std::basic_istream", align 8
@_ZSt4cout = external dso_local global %"class.std::basic_ostream", align 8
@llvm.global_ctors = appending global [1 x { i32, void ()*, i8* }] [{ i32, void ()*, i8* } { i32 65535, void ()* @_GLOBAL__sub_I_1703.cpp, i8* null }]

; Function Attrs: noinline uwtable
define internal void @__cxx_global_var_init() #0 section ".text.startup" {
  call void @_ZNSt8ios_base4InitC1Ev(%"class.std::ios_base::Init"* @_ZStL8__ioinit)
  %1 = call i32 @__cxa_atexit(void (i8*)* bitcast (void (%"class.std::ios_base::Init"*)* @_ZNSt8ios_base4InitD1Ev to void (i8*)*), i8* getelementptr inbounds (%"class.std::ios_base::Init", %"class.std::ios_base::Init"* @_ZStL8__ioinit, i32 0, i32 0), i8* @__dso_handle) #3
  ret void
}

declare dso_local void @_ZNSt8ios_base4InitC1Ev(%"class.std::ios_base::Init"*) unnamed_addr #1

; Function Attrs: nounwind
declare dso_local void @_ZNSt8ios_base4InitD1Ev(%"class.std::ios_base::Init"*) unnamed_addr #2

; Function Attrs: nounwind
declare dso_local i32 @__cxa_atexit(void (i8*)*, i8*, i8*) #3

; Function Attrs: noinline norecurse uwtable
define dso_local i32 @main() #4 {
  %1 = alloca i32, align 4
  %2 = alloca i32, align 4
  %3 = alloca i32, align 4
  %4 = alloca i32, align 4
  %5 = alloca [1000 x i8], align 16
  %6 = alloca [1000 x i8], align 16
  %7 = alloca i32, align 4
  %8 = alloca i32, align 4
  %9 = alloca i32, align 4
  %10 = alloca i32, align 4
  store i32 0, i32* %1, align 4
  store i32 0, i32* %4, align 4
  %11 = call dereferenceable(280) %"class.std::basic_istream"* @_ZNSirsERi(%"class.std::basic_istream"* @_ZSt3cin, i32* dereferenceable(4) %2)
  %12 = getelementptr inbounds [1000 x i8], [1000 x i8]* %5, i64 0, i64 0
  %13 = call dereferenceable(280) %"class.std::basic_istream"* @_ZStrsIcSt11char_traitsIcEERSt13basic_istreamIT_T0_ES6_PS3_(%"class.std::basic_istream"* dereferenceable(280) %11, i8* %12)
  %14 = call dereferenceable(280) %"class.std::basic_istream"* @_ZNSirsERi(%"class.std::basic_istream"* %13, i32* dereferenceable(4) %3)
  store i32 0, i32* %7, align 4
  br label %15

15:                                               ; preds = %44, %0
  %16 = load i32, i32* %7, align 4
  %17 = sext i32 %16 to i64
  %18 = getelementptr inbounds [1000 x i8], [1000 x i8]* %5, i64 0, i64 0
  %19 = call i64 @strlen(i8* %18) #6
  %20 = icmp ult i64 %17, %19
  br i1 %20, label %21, label %47

21:                                               ; preds = %15
  %22 = load i32, i32* %7, align 4
  %23 = sext i32 %22 to i64
  %24 = getelementptr inbounds [1000 x i8], [1000 x i8]* %5, i64 0, i64 %23
  %25 = load i8, i8* %24, align 1
  %26 = sext i8 %25 to i32
  %27 = icmp sge i32 %26, 65
  br i1 %27, label %28, label %43

28:                                               ; preds = %21
  %29 = load i32, i32* %7, align 4
  %30 = sext i32 %29 to i64
  %31 = getelementptr inbounds [1000 x i8], [1000 x i8]* %5, i64 0, i64 %30
  %32 = load i8, i8* %31, align 1
  %33 = sext i8 %32 to i32
  %34 = icmp sle i32 %33, 90
  br i1 %34, label %35, label %43

35:                                               ; preds = %28
  %36 = load i32, i32* %7, align 4
  %37 = sext i32 %36 to i64
  %38 = getelementptr inbounds [1000 x i8], [1000 x i8]* %5, i64 0, i64 %37
  %39 = load i8, i8* %38, align 1
  %40 = sext i8 %39 to i32
  %41 = add nsw i32 %40, 32
  %42 = trunc i32 %41 to i8
  store i8 %42, i8* %38, align 1
  br label %43

43:                                               ; preds = %35, %28, %21
  br label %44

44:                                               ; preds = %43
  %45 = load i32, i32* %7, align 4
  %46 = add nsw i32 %45, 1
  store i32 %46, i32* %7, align 4
  br label %15

47:                                               ; preds = %15
  store i32 0, i32* %8, align 4
  br label %48

48:                                               ; preds = %130, %47
  %49 = load i32, i32* %8, align 4
  %50 = sext i32 %49 to i64
  %51 = getelementptr inbounds [1000 x i8], [1000 x i8]* %5, i64 0, i64 0
  %52 = call i64 @strlen(i8* %51) #6
  %53 = icmp ult i64 %50, %52
  br i1 %53, label %54, label %133

54:                                               ; preds = %48
  %55 = load i32, i32* %8, align 4
  %56 = sext i32 %55 to i64
  %57 = getelementptr inbounds [1000 x i8], [1000 x i8]* %5, i64 0, i64 %56
  %58 = load i8, i8* %57, align 1
  %59 = sext i8 %58 to i32
  %60 = icmp sge i32 %59, 97
  br i1 %60, label %61, label %91

61:                                               ; preds = %54
  %62 = load i32, i32* %8, align 4
  %63 = sext i32 %62 to i64
  %64 = getelementptr inbounds [1000 x i8], [1000 x i8]* %5, i64 0, i64 %63
  %65 = load i8, i8* %64, align 1
  %66 = sext i8 %65 to i32
  %67 = icmp sle i32 %66, 122
  br i1 %67, label %68, label %91

68:                                               ; preds = %61
  %69 = load i32, i32* %8, align 4
  %70 = sext i32 %69 to i64
  %71 = getelementptr inbounds [1000 x i8], [1000 x i8]* %5, i64 0, i64 %70
  %72 = load i8, i8* %71, align 1
  %73 = sext i8 %72 to i32
  %74 = sub nsw i32 %73, 87
  %75 = sitofp i32 %74 to double
  %76 = load i32, i32* %2, align 4
  %77 = sitofp i32 %76 to double
  %78 = getelementptr inbounds [1000 x i8], [1000 x i8]* %5, i64 0, i64 0
  %79 = call i64 @strlen(i8* %78) #6
  %80 = uitofp i64 %79 to double
  %81 = fsub double %80, 1.000000e+00
  %82 = load i32, i32* %8, align 4
  %83 = sitofp i32 %82 to double
  %84 = fsub double %81, %83
  %85 = call double @pow(double %77, double %84) #3
  %86 = fmul double %75, %85
  %87 = load i32, i32* %4, align 4
  %88 = sitofp i32 %87 to double
  %89 = fadd double %88, %86
  %90 = fptosi double %89 to i32
  store i32 %90, i32* %4, align 4
  br label %129

91:                                               ; preds = %61, %54
  %92 = load i32, i32* %8, align 4
  %93 = sext i32 %92 to i64
  %94 = getelementptr inbounds [1000 x i8], [1000 x i8]* %5, i64 0, i64 %93
  %95 = load i8, i8* %94, align 1
  %96 = sext i8 %95 to i32
  %97 = icmp sge i32 %96, 49
  br i1 %97, label %98, label %128

98:                                               ; preds = %91
  %99 = load i32, i32* %8, align 4
  %100 = sext i32 %99 to i64
  %101 = getelementptr inbounds [1000 x i8], [1000 x i8]* %5, i64 0, i64 %100
  %102 = load i8, i8* %101, align 1
  %103 = sext i8 %102 to i32
  %104 = icmp sle i32 %103, 57
  br i1 %104, label %105, label %128

105:                                              ; preds = %98
  %106 = load i32, i32* %8, align 4
  %107 = sext i32 %106 to i64
  %108 = getelementptr inbounds [1000 x i8], [1000 x i8]* %5, i64 0, i64 %107
  %109 = load i8, i8* %108, align 1
  %110 = sext i8 %109 to i32
  %111 = sub nsw i32 %110, 48
  %112 = sitofp i32 %111 to double
  %113 = load i32, i32* %2, align 4
  %114 = sitofp i32 %113 to double
  %115 = getelementptr inbounds [1000 x i8], [1000 x i8]* %5, i64 0, i64 0
  %116 = call i64 @strlen(i8* %115) #6
  %117 = uitofp i64 %116 to double
  %118 = fsub double %117, 1.000000e+00
  %119 = load i32, i32* %8, align 4
  %120 = sitofp i32 %119 to double
  %121 = fsub double %118, %120
  %122 = call double @pow(double %114, double %121) #3
  %123 = fmul double %112, %122
  %124 = load i32, i32* %4, align 4
  %125 = sitofp i32 %124 to double
  %126 = fadd double %125, %123
  %127 = fptosi double %126 to i32
  store i32 %127, i32* %4, align 4
  br label %128

128:                                              ; preds = %105, %98, %91
  br label %129

129:                                              ; preds = %128, %68
  br label %130

130:                                              ; preds = %129
  %131 = load i32, i32* %8, align 4
  %132 = add nsw i32 %131, 1
  store i32 %132, i32* %8, align 4
  br label %48

133:                                              ; preds = %48
  %134 = load i32, i32* %4, align 4
  %135 = icmp eq i32 %134, 0
  br i1 %135, label %136, label %138

136:                                              ; preds = %133
  %137 = call dereferenceable(272) %"class.std::basic_ostream"* @_ZNSolsEi(%"class.std::basic_ostream"* @_ZSt4cout, i32 0)
  br label %188

138:                                              ; preds = %133
  store i32 0, i32* %9, align 4
  br label %139

139:                                              ; preds = %166, %138
  %140 = load i32, i32* %4, align 4
  %141 = icmp eq i32 %140, 0
  br i1 %141, label %142, label %143

142:                                              ; preds = %139
  br label %172

143:                                              ; preds = %139
  %144 = load i32, i32* %4, align 4
  %145 = load i32, i32* %3, align 4
  %146 = srem i32 %144, %145
  %147 = icmp slt i32 %146, 10
  br i1 %147, label %148, label %157

148:                                              ; preds = %143
  %149 = load i32, i32* %4, align 4
  %150 = load i32, i32* %3, align 4
  %151 = srem i32 %149, %150
  %152 = add nsw i32 %151, 48
  %153 = trunc i32 %152 to i8
  %154 = load i32, i32* %9, align 4
  %155 = sext i32 %154 to i64
  %156 = getelementptr inbounds [1000 x i8], [1000 x i8]* %6, i64 0, i64 %155
  store i8 %153, i8* %156, align 1
  br label %166

157:                                              ; preds = %143
  %158 = load i32, i32* %4, align 4
  %159 = load i32, i32* %3, align 4
  %160 = srem i32 %158, %159
  %161 = add nsw i32 %160, 55
  %162 = trunc i32 %161 to i8
  %163 = load i32, i32* %9, align 4
  %164 = sext i32 %163 to i64
  %165 = getelementptr inbounds [1000 x i8], [1000 x i8]* %6, i64 0, i64 %164
  store i8 %162, i8* %165, align 1
  br label %166

166:                                              ; preds = %157, %148
  %167 = load i32, i32* %4, align 4
  %168 = load i32, i32* %3, align 4
  %169 = sdiv i32 %167, %168
  store i32 %169, i32* %4, align 4
  %170 = load i32, i32* %9, align 4
  %171 = add nsw i32 %170, 1
  store i32 %171, i32* %9, align 4
  br label %139

172:                                              ; preds = %142
  %173 = load i32, i32* %9, align 4
  %174 = sub nsw i32 %173, 1
  store i32 %174, i32* %10, align 4
  br label %175

175:                                              ; preds = %184, %172
  %176 = load i32, i32* %10, align 4
  %177 = icmp sge i32 %176, 0
  br i1 %177, label %178, label %187

178:                                              ; preds = %175
  %179 = load i32, i32* %10, align 4
  %180 = sext i32 %179 to i64
  %181 = getelementptr inbounds [1000 x i8], [1000 x i8]* %6, i64 0, i64 %180
  %182 = load i8, i8* %181, align 1
  %183 = call dereferenceable(272) %"class.std::basic_ostream"* @_ZStlsISt11char_traitsIcEERSt13basic_ostreamIcT_ES5_c(%"class.std::basic_ostream"* dereferenceable(272) @_ZSt4cout, i8 signext %182)
  br label %184

184:                                              ; preds = %178
  %185 = load i32, i32* %10, align 4
  %186 = add nsw i32 %185, -1
  store i32 %186, i32* %10, align 4
  br label %175

187:                                              ; preds = %175
  br label %188

188:                                              ; preds = %187, %136
  ret i32 0
}

declare dso_local dereferenceable(280) %"class.std::basic_istream"* @_ZStrsIcSt11char_traitsIcEERSt13basic_istreamIT_T0_ES6_PS3_(%"class.std::basic_istream"* dereferenceable(280), i8*) #1

declare dso_local dereferenceable(280) %"class.std::basic_istream"* @_ZNSirsERi(%"class.std::basic_istream"*, i32* dereferenceable(4)) #1

; Function Attrs: nounwind readonly
declare dso_local i64 @strlen(i8*) #5

; Function Attrs: nounwind
declare dso_local double @pow(double, double) #2

declare dso_local dereferenceable(272) %"class.std::basic_ostream"* @_ZNSolsEi(%"class.std::basic_ostream"*, i32) #1

declare dso_local dereferenceable(272) %"class.std::basic_ostream"* @_ZStlsISt11char_traitsIcEERSt13basic_ostreamIcT_ES5_c(%"class.std::basic_ostream"* dereferenceable(272), i8 signext) #1

; Function Attrs: noinline uwtable
define internal void @_GLOBAL__sub_I_1703.cpp() #0 section ".text.startup" {
  call void @__cxx_global_var_init()
  ret void
}


!llvm.module.flags = !{!0}
!llvm.ident = !{!1}

!0 = !{i32 1, !"wchar_size", i32 4}
!1 = !{!"clang version 10.0.0-4ubuntu1 "}
