; ModuleID = 'source-C-CXX/54/1703.cpp'
source_filename = "source-C-CXX/54/1703.cpp"
target datalayout = "e-m:e-p270:32:32-p271:32:32-p272:64:64-i64:64-f80:128-n8:16:32:64-S128"
target triple = "x86_64-pc-linux-gnu"

%"class.std::ios_base::Init" = type { i8 }
%"class.std::basic_istream" = type { i32 (...)**, i64, %"class.std::basic_ios" }
%"class.std::basic_ios" = type { %"class.std::ios_base", %"class.std::basic_ostream"*, i8, i8, %"class.std::basic_streambuf"*, %"class.std::ctype"*, %"class.std::num_put"*, %"class.std::num_get"* }
%"class.std::ios_base" = type { i32 (...)**, i64, i64, i32, i32, i32, %"struct.std::ios_base::_Callback_list"*, %"struct.std::ios_base::_Words", [8 x %"struct.std::ios_base::_Words"], i32, %"struct.std::ios_base::_Words"*, %"class.std::locale" }
%"struct.std::ios_base::_Callback_list" = type { %"struct.std::ios_base::_Callback_list"*, void (i32, %"class.std::ios_base"*, i32)*, i32, i32 }
%"struct.std::ios_base::_Words" = type { i8*, i64 }
%"class.std::locale" = type { %"class.std::locale::_Impl"* }
%"class.std::locale::_Impl" = type { i32, %"class.std::locale::facet"**, i64, %"class.std::locale::facet"**, i8** }
%"class.std::locale::facet" = type <{ i32 (...)**, i32, [4 x i8] }>
%"class.std::basic_ostream" = type { i32 (...)**, %"class.std::basic_ios" }
%"class.std::basic_streambuf" = type { i32 (...)**, i8*, i8*, i8*, i8*, i8*, i8*, %"class.std::locale" }
%"class.std::ctype" = type <{ %"class.std::locale::facet.base", [4 x i8], %struct.__locale_struct*, i8, [7 x i8], i32*, i32*, i16*, i8, [256 x i8], [256 x i8], i8, [6 x i8] }>
%"class.std::locale::facet.base" = type <{ i32 (...)**, i32 }>
%struct.__locale_struct = type { [13 x %struct.__locale_data*], i16*, i32*, i32*, [13 x i8*] }
%struct.__locale_data = type opaque
%"class.std::num_put" = type { %"class.std::locale::facet.base", [4 x i8] }
%"class.std::num_get" = type { %"class.std::locale::facet.base", [4 x i8] }

@_ZStL8__ioinit = internal global %"class.std::ios_base::Init" zeroinitializer, align 1
@__dso_handle = external hidden global i8
@_ZSt3cin = external global %"class.std::basic_istream", align 8
@_ZSt4cout = external global %"class.std::basic_ostream", align 8
@llvm.global_ctors = appending global [1 x { i32, void ()*, i8* }] [{ i32, void ()*, i8* } { i32 65535, void ()* @_GLOBAL__sub_I_1703.cpp, i8* null }]

declare void @_ZNSt8ios_base4InitC1Ev(%"class.std::ios_base::Init"* nonnull align 1 dereferenceable(1)) unnamed_addr #0

; Function Attrs: nounwind
declare void @_ZNSt8ios_base4InitD1Ev(%"class.std::ios_base::Init"* nonnull align 1 dereferenceable(1)) unnamed_addr #1

; Function Attrs: nofree nounwind
declare i32 @__cxa_atexit(void (i8*)*, i8*, i8*) local_unnamed_addr #2

; Function Attrs: mustprogress norecurse sspstrong uwtable
define dso_local i32 @main() local_unnamed_addr #3 {
  %1 = alloca i8, align 1
  %2 = alloca i32, align 4
  %3 = alloca i32, align 4
  %4 = alloca [1000 x i8], align 16
  %5 = alloca [1000 x i8], align 16
  %6 = bitcast i32* %2 to i8*
  call void @llvm.lifetime.start.p0i8(i64 4, i8* nonnull %6) #8
  %7 = bitcast i32* %3 to i8*
  call void @llvm.lifetime.start.p0i8(i64 4, i8* nonnull %7) #8
  %8 = getelementptr inbounds [1000 x i8], [1000 x i8]* %4, i64 0, i64 0
  call void @llvm.lifetime.start.p0i8(i64 1000, i8* nonnull %8) #8
  %9 = getelementptr inbounds [1000 x i8], [1000 x i8]* %5, i64 0, i64 0
  call void @llvm.lifetime.start.p0i8(i64 1000, i8* nonnull %9) #8
  %10 = call nonnull align 8 dereferenceable(16) %"class.std::basic_istream"* @_ZNSirsERi(%"class.std::basic_istream"* nonnull align 8 dereferenceable(16) @_ZSt3cin, i32* nonnull align 4 dereferenceable(4) %2)
  call void @_ZSt17__istream_extractRSiPcl(%"class.std::basic_istream"* nonnull align 8 dereferenceable(16) %10, i8* nonnull %8, i64 1000)
  %11 = call nonnull align 8 dereferenceable(16) %"class.std::basic_istream"* @_ZNSirsERi(%"class.std::basic_istream"* nonnull align 8 dereferenceable(16) %10, i32* nonnull align 4 dereferenceable(4) %3)
  %12 = load i8, i8* %8, align 16
  %13 = icmp eq i8 %12, 0
  br i1 %13, label %14, label %17

14:                                               ; preds = %25, %0
  %15 = call i64 @strlen(i8* noundef nonnull %8) #9
  %16 = icmp eq i64 %15, 0
  br i1 %16, label %69, label %36

17:                                               ; preds = %0, %29
  %18 = phi i8 [ %31, %29 ], [ %12, %0 ]
  %19 = phi i64 [ %26, %29 ], [ 0, %0 ]
  %20 = add i8 %18, -65
  %21 = icmp ult i8 %20, 26
  br i1 %21, label %22, label %25

22:                                               ; preds = %17
  %23 = getelementptr inbounds [1000 x i8], [1000 x i8]* %4, i64 0, i64 %19
  %24 = add nuw nsw i8 %18, 32
  store i8 %24, i8* %23, align 1, !tbaa !5
  br label %25

25:                                               ; preds = %17, %22
  %26 = add nuw nsw i64 %19, 1
  %27 = call i64 @strlen(i8* noundef nonnull %8) #9
  %28 = icmp ugt i64 %27, %26
  br i1 %28, label %29, label %14, !llvm.loop !8

29:                                               ; preds = %25
  %30 = getelementptr inbounds [1000 x i8], [1000 x i8]* %4, i64 0, i64 %26
  %31 = load i8, i8* %30, align 1, !tbaa !5
  br label %17

32:                                               ; preds = %64
  %33 = icmp eq i32 %65, 0
  br i1 %33, label %69, label %34

34:                                               ; preds = %32
  %35 = load i32, i32* %3, align 4, !tbaa !10
  br label %73

36:                                               ; preds = %14, %64
  %37 = phi i64 [ %66, %64 ], [ 0, %14 ]
  %38 = phi i64 [ %67, %64 ], [ %15, %14 ]
  %39 = phi i32 [ %65, %64 ], [ 0, %14 ]
  %40 = getelementptr inbounds [1000 x i8], [1000 x i8]* %4, i64 0, i64 %37
  %41 = load i8, i8* %40, align 1, !tbaa !5
  %42 = sext i8 %41 to i32
  %43 = add i8 %41, -97
  %44 = icmp ult i8 %43, 26
  br i1 %44, label %48, label %45

45:                                               ; preds = %36
  %46 = add i8 %41, -49
  %47 = icmp ult i8 %46, 9
  br i1 %47, label %48, label %64

48:                                               ; preds = %45, %36
  %49 = phi i32 [ -87, %36 ], [ -48, %45 ]
  %50 = add nsw i32 %49, %42
  %51 = sitofp i32 %50 to double
  %52 = load i32, i32* %2, align 4, !tbaa !10
  %53 = sitofp i32 %52 to double
  %54 = uitofp i64 %38 to double
  %55 = fadd double %54, -1.000000e+00
  %56 = trunc i64 %37 to i32
  %57 = sitofp i32 %56 to double
  %58 = fsub double %55, %57
  %59 = call double @pow(double %53, double %58) #8
  %60 = fmul double %59, %51
  %61 = sitofp i32 %39 to double
  %62 = fadd double %60, %61
  %63 = fptosi double %62 to i32
  br label %64

64:                                               ; preds = %48, %45
  %65 = phi i32 [ %39, %45 ], [ %63, %48 ]
  %66 = add nuw nsw i64 %37, 1
  %67 = call i64 @strlen(i8* noundef nonnull %8) #9
  %68 = icmp ugt i64 %67, %66
  br i1 %68, label %36, label %32, !llvm.loop !12

69:                                               ; preds = %14, %32
  %70 = call nonnull align 8 dereferenceable(8) %"class.std::basic_ostream"* @_ZNSolsEi(%"class.std::basic_ostream"* nonnull align 8 dereferenceable(8) @_ZSt4cout, i32 0)
  br label %93

71:                                               ; preds = %73
  %72 = and i64 %74, 4294967295
  br label %85

73:                                               ; preds = %34, %73
  %74 = phi i64 [ 0, %34 ], [ %83, %73 ]
  %75 = phi i32 [ %65, %34 ], [ %82, %73 ]
  %76 = srem i32 %75, %35
  %77 = icmp slt i32 %76, 10
  %78 = trunc i32 %76 to i8
  %79 = select i1 %77, i8 48, i8 55
  %80 = add i8 %79, %78
  %81 = getelementptr inbounds [1000 x i8], [1000 x i8]* %5, i64 0, i64 %74
  store i8 %80, i8* %81, align 1
  %82 = sdiv i32 %75, %35
  %83 = add nuw i64 %74, 1
  %84 = icmp eq i32 %82, 0
  br i1 %84, label %71, label %73, !llvm.loop !13

85:                                               ; preds = %71, %85
  %86 = phi i64 [ %72, %71 ], [ %92, %85 ]
  %87 = getelementptr inbounds [1000 x i8], [1000 x i8]* %5, i64 0, i64 %86
  %88 = load i8, i8* %87, align 1, !tbaa !5
  call void @llvm.lifetime.start.p0i8(i64 1, i8* nonnull %1)
  store i8 %88, i8* %1, align 1, !tbaa !5
  %89 = call nonnull align 8 dereferenceable(8) %"class.std::basic_ostream"* @_ZSt16__ostream_insertIcSt11char_traitsIcEERSt13basic_ostreamIT_T0_ES6_PKS3_l(%"class.std::basic_ostream"* nonnull align 8 dereferenceable(8) @_ZSt4cout, i8* nonnull %1, i64 1)
  call void @llvm.lifetime.end.p0i8(i64 1, i8* nonnull %1)
  %90 = trunc i64 %86 to i32
  %91 = icmp sgt i32 %90, 0
  %92 = add nsw i64 %86, -1
  br i1 %91, label %85, label %93, !llvm.loop !14

93:                                               ; preds = %85, %69
  call void @llvm.lifetime.end.p0i8(i64 1000, i8* nonnull %9) #8
  call void @llvm.lifetime.end.p0i8(i64 1000, i8* nonnull %8) #8
  call void @llvm.lifetime.end.p0i8(i64 4, i8* nonnull %7) #8
  call void @llvm.lifetime.end.p0i8(i64 4, i8* nonnull %6) #8
  ret i32 0
}

; Function Attrs: argmemonly mustprogress nofree nosync nounwind willreturn
declare void @llvm.lifetime.start.p0i8(i64 immarg, i8* nocapture) #4

declare nonnull align 8 dereferenceable(16) %"class.std::basic_istream"* @_ZNSirsERi(%"class.std::basic_istream"* nonnull align 8 dereferenceable(16), i32* nonnull align 4 dereferenceable(4)) local_unnamed_addr #0

; Function Attrs: argmemonly mustprogress nofree nounwind readonly willreturn
declare i64 @strlen(i8* nocapture) local_unnamed_addr #5

; Function Attrs: argmemonly mustprogress nofree nosync nounwind willreturn
declare void @llvm.lifetime.end.p0i8(i64 immarg, i8* nocapture) #4

; Function Attrs: mustprogress nofree nounwind willreturn
declare double @pow(double, double) local_unnamed_addr #6

declare nonnull align 8 dereferenceable(8) %"class.std::basic_ostream"* @_ZNSolsEi(%"class.std::basic_ostream"* nonnull align 8 dereferenceable(8), i32) local_unnamed_addr #0

declare void @_ZSt17__istream_extractRSiPcl(%"class.std::basic_istream"* nonnull align 8 dereferenceable(16), i8*, i64) local_unnamed_addr #0

declare nonnull align 8 dereferenceable(8) %"class.std::basic_ostream"* @_ZSt16__ostream_insertIcSt11char_traitsIcEERSt13basic_ostreamIT_T0_ES6_PKS3_l(%"class.std::basic_ostream"* nonnull align 8 dereferenceable(8), i8*, i64) local_unnamed_addr #0

; Function Attrs: sspstrong uwtable
define internal void @_GLOBAL__sub_I_1703.cpp() #7 section ".text.startup" {
  tail call void @_ZNSt8ios_base4InitC1Ev(%"class.std::ios_base::Init"* nonnull align 1 dereferenceable(1) @_ZStL8__ioinit)
  %1 = tail call i32 @__cxa_atexit(void (i8*)* bitcast (void (%"class.std::ios_base::Init"*)* @_ZNSt8ios_base4InitD1Ev to void (i8*)*), i8* getelementptr inbounds (%"class.std::ios_base::Init", %"class.std::ios_base::Init"* @_ZStL8__ioinit, i64 0, i32 0), i8* nonnull @__dso_handle) #8
  ret void
}


!llvm.module.flags = !{!0, !1, !2, !3}
!llvm.ident = !{!4}

!0 = !{i32 1, !"wchar_size", i32 4}
!1 = !{i32 7, !"PIC Level", i32 2}
!2 = !{i32 7, !"PIE Level", i32 2}
!3 = !{i32 7, !"uwtable", i32 1}
!4 = !{!"clang version 13.0.0"}
!5 = !{!6, !6, i64 0}
!6 = !{!"omnipotent char", !7, i64 0}
!7 = !{!"Simple C++ TBAA"}
!8 = distinct !{!8, !9}
!9 = !{!"llvm.loop.mustprogress"}
!10 = !{!11, !11, i64 0}
!11 = !{!"int", !6, i64 0}
!12 = distinct !{!12, !9}
!13 = distinct !{!13, !9}
!14 = distinct !{!14, !9}
